; Function Attrs: mustprogress nounwind uwtable
define dso_local noundef i32 @_ZNK4llvm16AArch64InstrInfo19getInstBundleLengthERKNS_12MachineInstrE(ptr noundef nonnull align 8 dereferenceable(408) %0, ptr nocapture noundef nonnull readonly align 8 dereferenceable(70) %1) local_unnamed_addr #1 align 2 {
  %3 = getelementptr inbounds nuw i8, ptr %1, i64 24
  %4 = load ptr, ptr %3, align 8
  %5 = getelementptr inbounds i8, ptr %4, i64 48
  %6 = getelementptr inbounds nuw i8, ptr %1, i64 8
  %7 = load ptr, ptr %6, align 8
  %.not9 = icmp eq ptr %7, %5
  br i1 %.not9, label %.critedge, label %.lr.ph

.lr.ph:                                           ; preds = %2, %12
  %8 = phi ptr [ %16, %12 ], [ %7, %2 ]
  %.010 = phi i32 [ %14, %12 ], [ 0, %2 ]
  %9 = getelementptr inbounds nuw i8, ptr %8, i64 44
  %10 = load i32, ptr %9, align 4
  %11 = and i32 %10, 4
  %.not8 = icmp eq i32 %11, 0
  br i1 %.not8, label %.critedge, label %12

12:                                               ; preds = %.lr.ph
  %13 = tail call noundef i32 @_ZNK4llvm16AArch64InstrInfo18getInstSizeInBytesERKNS_12MachineInstrE(ptr noundef nonnull align 8 dereferenceable(408) %0, ptr noundef nonnull align 8 dereferenceable(70) %8)
  %14 = add i32 %13, %.010
  %15 = getelementptr inbounds nuw i8, ptr %8, i64 8
  %16 = load ptr, ptr %15, align 8
  %.not = icmp eq ptr %16, %5
  br i1 %.not, label %.critedge, label %.lr.ph, !llvm.loop !4

.critedge:                                        ; preds = %.lr.ph, %12, %2
  %.0.lcssa = phi i32 [ 0, %2 ], [ %14, %12 ], [ %.010, %.lr.ph ]
  ret i32 %.0.lcssa
}